; Function Attrs: nounwind uwtable
define internal void @dissect_emtc_preach_ce_level_2_hopping_offset_value(ptr noundef %0, ptr noundef %1) #0 {
  %3 = alloca i32, align 4
  %4 = load i32, ptr @hf_nfapi_prach_ce_level_2_hopping_offset, align 4
  %5 = call ptr @ptvcursor_add_ret_uint(ptr noundef %0, i32 noundef %4, i32 noundef 2, i32 noundef 0, ptr noundef nonnull %3) #7
  %6 = load i32, ptr %3, align 4
  %7 = icmp ugt i32 %6, 94
  br i1 %7, label %8, label %10

8:                                                ; preds = %2
  %9 = call ptr (ptr, ptr, ptr, ptr, ...) @expert_add_info_format(ptr noundef %1, ptr noundef %5, ptr noundef nonnull @ei_invalid_range, ptr noundef nonnull @.str.1815) #7
  br label %10

10:                                               ; preds = %8, %2
  ret void
}